(lp0
ccopy_reg
_reconstructor
p1
(ceuclid
Quaternion
p2
c__builtin__
object
p3
Ntp4
Rp5
(dp6
S'y'
p7
F-0.001997190421734704
sS'x'
p8
F-0.05297507663596744
sS'z'
p9
F-0.0001059502995714143
sS'w'
p10
F0.9985938319759274
sbag1
(g2
g3
Ntp11
Rp12
(dp13
g7
F0.8642140265228533
sg8
F-0.1357545432858961
sg9
F0.3465086386803624
sg10
F0.33858024699955086
sba.