(lp0
ccopy_reg
_reconstructor
p1
(ceuclid
Vector3
p2
c__builtin__
object
p3
Ntp4
Rp5
(dp6
S'y'
p7
F0.2947974903237067
sS'x'
p8
F-0.02422918800975779
sS'z'
p9
F6.057264409113299
sbag1
(g2
g3
Ntp10
Rp11
(dp12
g7
F14.592703379957785
sg8
F5.912775978619669
sg9
F-14.309931420992443
sba.